; Function Attrs: mustprogress uwtable
define hidden void @_ZNK4cvc58internal11Cardinality20getFiniteCardinalityEv(ptr dead_on_unwind noalias writable sret(%"class.cvc5::internal::Integer") align 8 %0, ptr noundef nonnull align 8 dereferenceable(16) %1) local_unnamed_addr #4 align 2 personality ptr @__gxx_personality_v0 {
  %3 = alloca %"class.cvc5::internal::Integer", align 8
  call void @llvm.lifetime.start.p0(i64 16, ptr nonnull %3) #15
  call void @__gmpz_init_set_ui(ptr noundef nonnull align 8 dereferenceable(16) %3, i64 noundef 1)
  invoke void @_ZNK4cvc58internal7IntegermiERKS1_(ptr dead_on_unwind writable sret(%"class.cvc5::internal::Integer") align 8 %0, ptr noundef nonnull align 8 dereferenceable(16) %1, ptr noundef nonnull align 8 dereferenceable(16) %3)
          to label %4 unwind label %8

4:                                                ; preds = %2
  invoke void @__gmpz_clear(ptr noundef nonnull align 8 dereferenceable(16) %3)
          to label %_ZN4cvc58internal7IntegerD2Ev.exit unwind label %5

5:                                                ; preds = %4
  %6 = landingpad { ptr, i32 }
          catch ptr null
  %7 = extractvalue { ptr, i32 } %6, 0
  call void @__clang_call_terminate(ptr %7) #14
  unreachable

_ZN4cvc58internal7IntegerD2Ev.exit:               ; preds = %4
  call void @llvm.lifetime.end.p0(i64 16, ptr nonnull %3) #15
  ret void

8:                                                ; preds = %2
  %9 = landingpad { ptr, i32 }
          cleanup
  invoke void @__gmpz_clear(ptr noundef nonnull align 8 dereferenceable(16) %3)
          to label %_ZN4cvc58internal7IntegerD2Ev.exit2 unwind label %10

10:                                               ; preds = %8
  %11 = landingpad { ptr, i32 }
          catch ptr null
  %12 = extractvalue { ptr, i32 } %11, 0
  call void @__clang_call_terminate(ptr %12) #14
  unreachable

_ZN4cvc58internal7IntegerD2Ev.exit2:              ; preds = %8
  call void @llvm.lifetime.end.p0(i64 16, ptr nonnull %3) #15
  resume { ptr, i32 } %9
}